target datalayout = "e-m:e-p270:32:32-p271:32:32-p272:64:64-i64:64-i128:128-f80:128-n8:16:32:64-S128"
target triple = "x86_64-pc-linux-gnu"

%struct.evp_md_ctx_st = type { ptr, ptr, ptr, i64, ptr, ptr, ptr, ptr, ptr }
%struct.evp_md_st = type { i32, i32, i32, i64, i32, ptr, ptr, ptr, ptr, ptr, i32, i32, ptr, i32, ptr, ptr, ptr, %struct.CRYPTO_REF_COUNT, ptr, ptr, ptr, ptr, ptr, ptr, ptr, ptr, ptr, ptr, ptr, ptr, ptr, ptr, ptr }
%struct.CRYPTO_REF_COUNT = type { i32 }
%struct.evp_pkey_ctx_st = type { i32, ptr, ptr, ptr, ptr, %union.anon, %struct.anon.4, ptr, ptr, ptr, i32, i32, ptr, ptr, ptr, ptr, ptr, i8, ptr }
%union.anon = type { %struct.anon.0 }
%struct.anon.0 = type { ptr, ptr }
%struct.anon.4 = type { ptr, ptr, i64, i8 }
%struct.anon.1 = type { ptr, ptr }

@.str = private unnamed_addr constant [31 x i8] c"../openssl/crypto/evp/digest.c\00", align 1
@__func__.EVP_DigestUpdate = private unnamed_addr constant [17 x i8] c"EVP_DigestUpdate\00", align 1

; Function Attrs: nounwind uwtable
define i32 @EVP_DigestUpdate(ptr noundef %0, ptr noundef %1, i64 noundef %2) #0 {
  %4 = alloca i32, align 4
  %5 = alloca ptr, align 8
  %6 = alloca ptr, align 8
  %7 = alloca i64, align 8
  store ptr %0, ptr %5, align 8, !tbaa !3
  store ptr %1, ptr %6, align 8, !tbaa !61
  store i64 %2, ptr %7, align 8, !tbaa !62
  %8 = load i64, ptr %7, align 8, !tbaa !62
  %9 = icmp eq i64 %8, 0
  br i1 %9, label %10, label %11

10:                                               ; preds = %3
  store i32 1, ptr %4, align 4
  br label %119

11:                                               ; preds = %3
  %12 = load ptr, ptr %5, align 8, !tbaa !3
  %13 = getelementptr inbounds nuw %struct.evp_md_ctx_st, ptr %12, i32 0, i32 3
  %14 = load i64, ptr %13, align 8, !tbaa !54
  %15 = and i64 %14, 2048
  %16 = icmp ne i64 %15, 0
  br i1 %16, label %17, label %18

17:                                               ; preds = %11
  call void @ERR_new()
  call void @ERR_set_debug(ptr noundef @.str, i32 noundef 391, ptr noundef @__func__.EVP_DigestUpdate)
  call void (i32, i32, ptr, ...) @ERR_set_error(i32 noundef 6, i32 noundef 189, ptr noundef null)
  store i32 0, ptr %4, align 4
  br label %119

18:                                               ; preds = %11
  %19 = load ptr, ptr %5, align 8, !tbaa !3
  %20 = getelementptr inbounds nuw %struct.evp_md_ctx_st, ptr %19, i32 0, i32 5
  %21 = load ptr, ptr %20, align 8, !tbaa !30
  %22 = icmp ne ptr %21, null
  br i1 %22, label %23, label %64

23:                                               ; preds = %18
  %24 = load ptr, ptr %5, align 8, !tbaa !3
  %25 = getelementptr inbounds nuw %struct.evp_md_ctx_st, ptr %24, i32 0, i32 5
  %26 = load ptr, ptr %25, align 8, !tbaa !30
  %27 = getelementptr inbounds nuw %struct.evp_pkey_ctx_st, ptr %26, i32 0, i32 0
  %28 = load i32, ptr %27, align 8, !tbaa !45
  %29 = and i32 %28, 49648
  %30 = icmp ne i32 %29, 0
  br i1 %30, label %31, label %64

31:                                               ; preds = %23
  %32 = load ptr, ptr %5, align 8, !tbaa !3
  %33 = getelementptr inbounds nuw %struct.evp_md_ctx_st, ptr %32, i32 0, i32 5
  %34 = load ptr, ptr %33, align 8, !tbaa !30
  %35 = getelementptr inbounds nuw %struct.evp_pkey_ctx_st, ptr %34, i32 0, i32 5
  %36 = getelementptr inbounds nuw %struct.anon.1, ptr %35, i32 0, i32 1
  %37 = load ptr, ptr %36, align 8, !tbaa !52
  %38 = icmp ne ptr %37, null
  br i1 %38, label %39, label %64

39:                                               ; preds = %31
  %40 = load ptr, ptr %5, align 8, !tbaa !3
  %41 = getelementptr inbounds nuw %struct.evp_md_ctx_st, ptr %40, i32 0, i32 5
  %42 = load ptr, ptr %41, align 8, !tbaa !30
  %43 = getelementptr inbounds nuw %struct.evp_pkey_ctx_st, ptr %42, i32 0, i32 0
  %44 = load i32, ptr %43, align 8, !tbaa !45
  %45 = icmp eq i32 %44, 128
  br i1 %45, label %46, label %51

46:                                               ; preds = %39
  %47 = load ptr, ptr %5, align 8, !tbaa !3
  %48 = load ptr, ptr %6, align 8, !tbaa !61
  %49 = load i64, ptr %7, align 8, !tbaa !62
  %50 = call i32 @EVP_DigestSignUpdate(ptr noundef %47, ptr noundef %48, i64 noundef %49)
  store i32 %50, ptr %4, align 4
  br label %119

51:                                               ; preds = %39
  %52 = load ptr, ptr %5, align 8, !tbaa !3
  %53 = getelementptr inbounds nuw %struct.evp_md_ctx_st, ptr %52, i32 0, i32 5
  %54 = load ptr, ptr %53, align 8, !tbaa !30
  %55 = getelementptr inbounds nuw %struct.evp_pkey_ctx_st, ptr %54, i32 0, i32 0
  %56 = load i32, ptr %55, align 8, !tbaa !45
  %57 = icmp eq i32 %56, 256
  br i1 %57, label %58, label %63

58:                                               ; preds = %51
  %59 = load ptr, ptr %5, align 8, !tbaa !3
  %60 = load ptr, ptr %6, align 8, !tbaa !61
  %61 = load i64, ptr %7, align 8, !tbaa !62
  %62 = call i32 @EVP_DigestVerifyUpdate(ptr noundef %59, ptr noundef %60, i64 noundef %61)
  store i32 %62, ptr %4, align 4
  br label %119

63:                                               ; preds = %51
  call void @ERR_new()
  call void @ERR_set_debug(ptr noundef @.str, i32 noundef 412, ptr noundef @__func__.EVP_DigestUpdate)
  call void (i32, i32, ptr, ...) @ERR_set_error(i32 noundef 6, i32 noundef 189, ptr noundef null)
  store i32 0, ptr %4, align 4
  br label %119

64:                                               ; preds = %31, %23, %18
  %65 = load ptr, ptr %5, align 8, !tbaa !3
  %66 = getelementptr inbounds nuw %struct.evp_md_ctx_st, ptr %65, i32 0, i32 1
  %67 = load ptr, ptr %66, align 8, !tbaa !16
  %68 = icmp eq ptr %67, null
  br i1 %68, label %82, label %69

69:                                               ; preds = %64
  %70 = load ptr, ptr %5, align 8, !tbaa !3
  %71 = getelementptr inbounds nuw %struct.evp_md_ctx_st, ptr %70, i32 0, i32 1
  %72 = load ptr, ptr %71, align 8, !tbaa !16
  %73 = getelementptr inbounds nuw %struct.evp_md_st, ptr %72, i32 0, i32 16
  %74 = load ptr, ptr %73, align 8, !tbaa !55
  %75 = icmp eq ptr %74, null
  br i1 %75, label %82, label %76

76:                                               ; preds = %69
  %77 = load ptr, ptr %5, align 8, !tbaa !3
  %78 = getelementptr inbounds nuw %struct.evp_md_ctx_st, ptr %77, i32 0, i32 3
  %79 = load i64, ptr %78, align 8, !tbaa !54
  %80 = and i64 %79, 256
  %81 = icmp ne i64 %80, 0
  br i1 %81, label %82, label %83

82:                                               ; preds = %76, %69, %64
  br label %103

83:                                               ; preds = %76
  %84 = load ptr, ptr %5, align 8, !tbaa !3
  %85 = getelementptr inbounds nuw %struct.evp_md_ctx_st, ptr %84, i32 0, i32 1
  %86 = load ptr, ptr %85, align 8, !tbaa !16
  %87 = getelementptr inbounds nuw %struct.evp_md_st, ptr %86, i32 0, i32 20
  %88 = load ptr, ptr %87, align 8, !tbaa !63
  %89 = icmp eq ptr %88, null
  br i1 %89, label %90, label %91

90:                                               ; preds = %83
  call void @ERR_new()
  call void @ERR_set_debug(ptr noundef @.str, i32 noundef 422, ptr noundef @__func__.EVP_DigestUpdate)
  call void (i32, i32, ptr, ...) @ERR_set_error(i32 noundef 6, i32 noundef 189, ptr noundef null)
  store i32 0, ptr %4, align 4
  br label %119

91:                                               ; preds = %83
  %92 = load ptr, ptr %5, align 8, !tbaa !3
  %93 = getelementptr inbounds nuw %struct.evp_md_ctx_st, ptr %92, i32 0, i32 1
  %94 = load ptr, ptr %93, align 8, !tbaa !16
  %95 = getelementptr inbounds nuw %struct.evp_md_st, ptr %94, i32 0, i32 20
  %96 = load ptr, ptr %95, align 8, !tbaa !63
  %97 = load ptr, ptr %5, align 8, !tbaa !3
  %98 = getelementptr inbounds nuw %struct.evp_md_ctx_st, ptr %97, i32 0, i32 7
  %99 = load ptr, ptr %98, align 8, !tbaa !10
  %100 = load ptr, ptr %6, align 8, !tbaa !61
  %101 = load i64, ptr %7, align 8, !tbaa !62
  %102 = call i32 %96(ptr noundef %99, ptr noundef %100, i64 noundef %101)
  store i32 %102, ptr %4, align 4
  br label %119

103:                                              ; preds = %82
  %104 = load ptr, ptr %5, align 8, !tbaa !3
  %105 = getelementptr inbounds nuw %struct.evp_md_ctx_st, ptr %104, i32 0, i32 6
  %106 = load ptr, ptr %105, align 8, !tbaa !59
  %107 = icmp ne ptr %106, null
  br i1 %107, label %108, label %116

108:                                              ; preds = %103
  %109 = load ptr, ptr %5, align 8, !tbaa !3
  %110 = getelementptr inbounds nuw %struct.evp_md_ctx_st, ptr %109, i32 0, i32 6
  %111 = load ptr, ptr %110, align 8, !tbaa !59
  %112 = load ptr, ptr %5, align 8, !tbaa !3
  %113 = load ptr, ptr %6, align 8, !tbaa !61
  %114 = load i64, ptr %7, align 8, !tbaa !62
  %115 = call i32 %111(ptr noundef %112, ptr noundef %113, i64 noundef %114)
  br label %117

116:                                              ; preds = %103
  br label %117

117:                                              ; preds = %116, %108
  %118 = phi i32 [ %115, %108 ], [ 0, %116 ]
  store i32 %118, ptr %4, align 4
  br label %119

119:                                              ; preds = %117, %91, %90, %63, %58, %46, %17, %10
  %120 = load i32, ptr %4, align 4
  ret i32 %120
}