; Function Attrs: nounwind uwtable
define i32 @EVP_DigestUpdate(ptr noundef %0, ptr noundef %1, i64 noundef %2) local_unnamed_addr #0 {
  %4 = icmp eq i64 %2, 0
  br i1 %4, label %48, label %5

5:                                                ; preds = %3
  %6 = getelementptr inbounds nuw i8, ptr %0, i64 24
  %7 = load i64, ptr %6, align 8, !tbaa !42
  %8 = and i64 %7, 2048
  %.not = icmp eq i64 %8, 0
  br i1 %.not, label %10, label %9

9:                                                ; preds = %5
  tail call void @ERR_new() #8
  tail call void @ERR_set_debug(ptr noundef nonnull @.str, i32 noundef 391, ptr noundef nonnull @__func__.EVP_DigestUpdate) #8
  tail call void (i32, i32, ptr, ...) @ERR_set_error(i32 noundef 6, i32 noundef 189, ptr noundef null) #8
  br label %48

10:                                               ; preds = %5
  %11 = getelementptr inbounds nuw i8, ptr %0, i64 40
  %12 = load ptr, ptr %11, align 8, !tbaa !26
  %.not32 = icmp eq ptr %12, null
  br i1 %.not32, label %25, label %13

13:                                               ; preds = %10
  %14 = load i32, ptr %12, align 8, !tbaa !31
  %15 = and i32 %14, 49648
  %.not33 = icmp eq i32 %15, 0
  br i1 %.not33, label %25, label %16

16:                                               ; preds = %13
  %17 = getelementptr inbounds nuw i8, ptr %12, i64 48
  %18 = load ptr, ptr %17, align 8, !tbaa !40
  %.not34 = icmp eq ptr %18, null
  br i1 %.not34, label %25, label %19

19:                                               ; preds = %16
  switch i32 %14, label %24 [
    i32 128, label %20
    i32 256, label %22
  ]

20:                                               ; preds = %19
  %21 = tail call i32 @EVP_DigestSignUpdate(ptr noundef nonnull %0, ptr noundef %1, i64 noundef %2) #8
  br label %48

22:                                               ; preds = %19
  %23 = tail call i32 @EVP_DigestVerifyUpdate(ptr noundef nonnull %0, ptr noundef %1, i64 noundef %2) #8
  br label %48

24:                                               ; preds = %19
  tail call void @ERR_new() #8
  tail call void @ERR_set_debug(ptr noundef nonnull @.str, i32 noundef 412, ptr noundef nonnull @__func__.EVP_DigestUpdate) #8
  tail call void (i32, i32, ptr, ...) @ERR_set_error(i32 noundef 6, i32 noundef 189, ptr noundef null) #8
  br label %48

25:                                               ; preds = %16, %13, %10
  %26 = getelementptr inbounds nuw i8, ptr %0, i64 8
  %27 = load ptr, ptr %26, align 8, !tbaa !12
  %28 = icmp eq ptr %27, null
  br i1 %28, label %43, label %29

29:                                               ; preds = %25
  %30 = getelementptr inbounds nuw i8, ptr %27, i64 112
  %31 = load ptr, ptr %30, align 8, !tbaa !43
  %32 = icmp ne ptr %31, null
  %33 = and i64 %7, 256
  %.not35 = icmp eq i64 %33, 0
  %or.cond = and i1 %.not35, %32
  br i1 %or.cond, label %34, label %43

34:                                               ; preds = %29
  %35 = getelementptr inbounds nuw i8, ptr %27, i64 144
  %36 = load ptr, ptr %35, align 8, !tbaa !49
  %37 = icmp eq ptr %36, null
  br i1 %37, label %38, label %39

38:                                               ; preds = %34
  tail call void @ERR_new() #8
  tail call void @ERR_set_debug(ptr noundef nonnull @.str, i32 noundef 422, ptr noundef nonnull @__func__.EVP_DigestUpdate) #8
  tail call void (i32, i32, ptr, ...) @ERR_set_error(i32 noundef 6, i32 noundef 189, ptr noundef null) #8
  br label %48

39:                                               ; preds = %34
  %40 = getelementptr inbounds nuw i8, ptr %0, i64 56
  %41 = load ptr, ptr %40, align 8, !tbaa !3
  %42 = tail call i32 %36(ptr noundef %41, ptr noundef %1, i64 noundef %2) #8
  br label %48

43:                                               ; preds = %25, %29
  %44 = getelementptr inbounds nuw i8, ptr %0, i64 48
  %45 = load ptr, ptr %44, align 8, !tbaa !47
  %.not36 = icmp eq ptr %45, null
  br i1 %.not36, label %48, label %46

46:                                               ; preds = %43
  %47 = tail call i32 %45(ptr noundef nonnull %0, ptr noundef %1, i64 noundef %2) #8
  br label %48

48:                                               ; preds = %46, %43, %3, %39, %38, %24, %22, %20, %9
  %.0 = phi i32 [ 0, %9 ], [ %21, %20 ], [ %23, %22 ], [ 0, %24 ], [ 0, %38 ], [ %42, %39 ], [ 1, %3 ], [ %47, %46 ], [ 0, %43 ]
  ret i32 %.0
}